target datalayout = "e-m:e-p270:32:32-p271:32:32-p272:64:64-i64:64-i128:128-f80:128-n8:16:32:64-S128"
target triple = "x86_64-pc-linux-gnu"

%struct.vars = type { ptr, ptr, ptr, i32, i32, i32, i32, i32, i32, i32, ptr, i64, [10 x ptr], ptr, ptr, i16, ptr, ptr, ptr, ptr, i32, ptr, ptr, ptr, i32, i64 }
%struct.cnfa = type { i32, i32, i32, i32, i32, [2 x i16], [2 x i16], ptr, ptr, ptr, i32, i32 }
%struct.subre = type { i8, i8, i8, i32, i32, i32, i16, i16, ptr, ptr, ptr, ptr, %struct.cnfa, ptr }

; Function Attrs: nounwind uwtable
define internal void @cleanst(ptr noundef %0) #0 {
  %2 = alloca ptr, align 8
  %3 = alloca ptr, align 8
  %4 = alloca ptr, align 8
  store ptr %0, ptr %2, align 8
  call void @llvm.lifetime.start.p0(i64 8, ptr %3) #12
  call void @llvm.lifetime.start.p0(i64 8, ptr %4) #12
  %5 = load ptr, ptr %2, align 8
  %6 = getelementptr inbounds nuw %struct.vars, ptr %5, i32 0, i32 18
  %7 = load ptr, ptr %6, align 8
  store ptr %7, ptr %3, align 8
  br label %8

8:                                                ; preds = %24, %1
  %9 = load ptr, ptr %3, align 8
  %10 = icmp ne ptr %9, null
  br i1 %10, label %11, label %26

11:                                               ; preds = %8
  %12 = load ptr, ptr %3, align 8
  %13 = getelementptr inbounds nuw %struct.subre, ptr %12, i32 0, i32 13
  %14 = load ptr, ptr %13, align 8
  store ptr %14, ptr %4, align 8
  %15 = load ptr, ptr %3, align 8
  %16 = getelementptr inbounds nuw %struct.subre, ptr %15, i32 0, i32 1
  %17 = load i8, ptr %16, align 1
  %18 = sext i8 %17 to i32
  %19 = and i32 %18, 64
  %20 = icmp ne i32 %19, 0
  br i1 %20, label %23, label %21

21:                                               ; preds = %11
  %22 = load ptr, ptr %3, align 8
  call void @pfree(ptr noundef %22)
  br label %23

23:                                               ; preds = %21, %11
  br label %24

24:                                               ; preds = %23
  %25 = load ptr, ptr %4, align 8
  store ptr %25, ptr %3, align 8
  br label %8, !llvm.loop !16

26:                                               ; preds = %8
  %27 = load ptr, ptr %2, align 8
  %28 = getelementptr inbounds nuw %struct.vars, ptr %27, i32 0, i32 18
  store ptr null, ptr %28, align 8
  %29 = load ptr, ptr %2, align 8
  %30 = getelementptr inbounds nuw %struct.vars, ptr %29, i32 0, i32 19
  store ptr null, ptr %30, align 8
  call void @llvm.lifetime.end.p0(i64 8, ptr %4) #12
  call void @llvm.lifetime.end.p0(i64 8, ptr %3) #12
  ret void
}