; Function Attrs: nounwind uwtable
define internal fastcc void @cleanst(ptr noundef nonnull captures(none) %0) unnamed_addr #0 {
  %2 = getelementptr inbounds nuw i8, ptr %0, i64 192
  %3 = load ptr, ptr %2, align 8
  %.not9 = icmp eq ptr %3, null
  br i1 %.not9, label %._crit_edge, label %.lr.ph

.lr.ph:                                           ; preds = %1, %10
  %.010 = phi ptr [ %5, %10 ], [ %3, %1 ]
  %4 = getelementptr inbounds nuw i8, ptr %.010, i64 120
  %5 = load ptr, ptr %4, align 8
  %6 = getelementptr inbounds nuw i8, ptr %.010, i64 1
  %7 = load i8, ptr %6, align 1
  %8 = and i8 %7, 64
  %.not8 = icmp eq i8 %8, 0
  br i1 %.not8, label %9, label %10

9:                                                ; preds = %.lr.ph
  tail call void @pfree(ptr noundef nonnull %.010) #20
  br label %10

10:                                               ; preds = %.lr.ph, %9
  %.not = icmp eq ptr %5, null
  br i1 %.not, label %._crit_edge, label %.lr.ph, !llvm.loop !11

._crit_edge:                                      ; preds = %10, %1
  tail call void @llvm.memset.p0.i64(ptr noundef nonnull align 8 dereferenceable(16) %2, i8 0, i64 16, i1 false)
  ret void
}